target datalayout = "e-m:e-p270:32:32-p271:32:32-p272:64:64-i64:64-i128:128-f80:128-n8:16:32:64-S128"
target triple = "x86_64-pc-linux-gnu"

%"class.i18n::phonenumbers::UnicodeText::const_iterator" = type { ptr }

; Function Attrs: mustprogress nounwind uwtable
define internal noundef i32 @_ZN4i18n12phonenumbersL17CodepointDistanceEPKcS2_(ptr noundef %0, ptr noundef %1) #1 {
  %3 = alloca ptr, align 8
  %4 = alloca ptr, align 8
  %5 = alloca i32, align 4
  %6 = alloca ptr, align 8
  store ptr %0, ptr %3, align 8, !tbaa !12
  store ptr %1, ptr %4, align 8, !tbaa !12
  call void @llvm.lifetime.start.p0(i64 4, ptr %5) #15
  store i32 0, ptr %5, align 4, !tbaa !13
  call void @llvm.lifetime.start.p0(i64 8, ptr %6) #15
  %7 = load ptr, ptr %3, align 8, !tbaa !12
  store ptr %7, ptr %6, align 8, !tbaa !12
  br label %8

8:                                                ; preds = %21, %2
  %9 = load ptr, ptr %6, align 8, !tbaa !12
  %10 = load ptr, ptr %4, align 8, !tbaa !12
  %11 = icmp ult ptr %9, %10
  br i1 %11, label %13, label %12

12:                                               ; preds = %8
  call void @llvm.lifetime.end.p0(i64 8, ptr %6) #15
  br label %24

13:                                               ; preds = %8
  %14 = load ptr, ptr %6, align 8, !tbaa !12
  %15 = load i8, ptr %14, align 1, !tbaa !15
  %16 = sext i8 %15 to i32
  %17 = icmp sge i32 %16, -64
  %18 = zext i1 %17 to i32
  %19 = load i32, ptr %5, align 4, !tbaa !13
  %20 = add nsw i32 %19, %18
  store i32 %20, ptr %5, align 4, !tbaa !13
  br label %21

21:                                               ; preds = %13
  %22 = load ptr, ptr %6, align 8, !tbaa !12
  %23 = getelementptr inbounds nuw i8, ptr %22, i32 1
  store ptr %23, ptr %6, align 8, !tbaa !12
  br label %8, !llvm.loop !16

24:                                               ; preds = %12
  %25 = load i32, ptr %5, align 4, !tbaa !13
  call void @llvm.lifetime.end.p0(i64 4, ptr %5) #15
  ret i32 %25
}

; Function Attrs: mustprogress uwtable
define dso_local noundef i64 @_ZN4i18n12phonenumbers8distanceERKNS0_11UnicodeText14const_iteratorES4_(ptr noundef nonnull align 8 dereferenceable(8) %0, ptr noundef nonnull align 8 dereferenceable(8) %1) #0 {
  %3 = alloca ptr, align 8
  %4 = alloca ptr, align 8
  store ptr %0, ptr %3, align 8, !tbaa !4
  store ptr %1, ptr %4, align 8, !tbaa !4
  %5 = load ptr, ptr %3, align 8, !tbaa !4
  %6 = getelementptr inbounds nuw %"class.i18n::phonenumbers::UnicodeText::const_iterator", ptr %5, i32 0, i32 0
  %7 = load ptr, ptr %6, align 8, !tbaa !9
  %8 = load ptr, ptr %4, align 8, !tbaa !4
  %9 = getelementptr inbounds nuw %"class.i18n::phonenumbers::UnicodeText::const_iterator", ptr %8, i32 0, i32 0
  %10 = load ptr, ptr %9, align 8, !tbaa !9
  %11 = call noundef i32 @_ZN4i18n12phonenumbersL17CodepointDistanceEPKcS2_(ptr noundef %7, ptr noundef %10)
  %12 = sext i32 %11 to i64
  ret i64 %12
}