; Function Attrs: mustprogress nofree norecurse nosync nounwind willreturn memory(read, inaccessiblemem: none) uwtable
define dso_local noundef range(i64 0, 2147483648) i64 @_ZN4i18n12phonenumbers8distanceERKNS0_11UnicodeText14const_iteratorES4_(ptr noundef nonnull readonly align 8 captures(none) dereferenceable(8) %0, ptr noundef nonnull readonly align 8 captures(none) dereferenceable(8) %1) local_unnamed_addr #0 {
  %3 = load ptr, ptr %0, align 8, !tbaa !4
  %4 = load ptr, ptr %1, align 8, !tbaa !4
  %5 = icmp ult ptr %3, %4
  br i1 %5, label %.lr.ph.i, label %_ZN4i18n12phonenumbersL17CodepointDistanceEPKcS2_.exit

.lr.ph.i:                                         ; preds = %2, %.lr.ph.i
  %.08.i = phi ptr [ %10, %.lr.ph.i ], [ %3, %2 ]
  %.067.i = phi i32 [ %9, %.lr.ph.i ], [ 0, %2 ]
  %6 = load i8, ptr %.08.i, align 1, !tbaa !10
  %7 = icmp sgt i8 %6, -65
  %8 = zext i1 %7 to i32
  %9 = add nuw nsw i32 %.067.i, %8
  %10 = getelementptr inbounds nuw i8, ptr %.08.i, i64 1
  %exitcond.not.i = icmp eq ptr %10, %4
  br i1 %exitcond.not.i, label %_ZN4i18n12phonenumbersL17CodepointDistanceEPKcS2_.exit.loopexit, label %.lr.ph.i, !llvm.loop !11

_ZN4i18n12phonenumbersL17CodepointDistanceEPKcS2_.exit.loopexit: ; preds = %.lr.ph.i
  %11 = zext nneg i32 %9 to i64
  br label %_ZN4i18n12phonenumbersL17CodepointDistanceEPKcS2_.exit

_ZN4i18n12phonenumbersL17CodepointDistanceEPKcS2_.exit: ; preds = %_ZN4i18n12phonenumbersL17CodepointDistanceEPKcS2_.exit.loopexit, %2
  %.06.lcssa.i = phi i64 [ 0, %2 ], [ %11, %_ZN4i18n12phonenumbersL17CodepointDistanceEPKcS2_.exit.loopexit ]
  ret i64 %.06.lcssa.i
}